(lp0
S'poi'
p1
aS'total_stock_value'
p2
aS'exercised_stock_options'
p3
aS'bonus'
p4
aS'salary'
p5
aS'deferred_income'
p6
aS'long_term_incentive'
p7
aS'total_payments'
p8
aS'restricted_stock'
p9
aS'shared_receipt_with_poi'
p10
aS'loan_advances'
p11
aS'fraction_from_poi_email'
p12
aS'expenses'
p13
aS'from_poi_to_this_person'
p14
aS'fraction_to_poi_email'
p15
a.